target datalayout = "e-m:e-p270:32:32-p271:32:32-p272:64:64-i64:64-i128:128-f80:128-n8:16:32:64-S128"
target triple = "x86_64-pc-linux-gnu"

%struct.ScanTable = type { ptr, [64 x i8], [64 x i8] }
%struct.MpegEncContext = type { ptr, i32, i32, i32, [12 x i32], i32, %struct.ScanTable, %struct.ScanTable, [64 x i8], [64 x i8], ptr, ptr, i32, i32, i32, i32, i32, i32, i32, i32, i32, i32, i32, i32, i32, i32, i32, i32, i32, i32, i32, i32, i64, i64, ptr, %struct.BufferPoolContext, i32, i32, %union.anon, i32, %struct.MPVWorkPicture, %struct.MPVWorkPicture, %struct.MPVWorkPicture, i32, [3 x i32], ptr, [3 x ptr], ptr, ptr, ptr, ptr, ptr, ptr, [3 x ptr], i32, ptr, ptr, ptr, ptr, %struct.ScratchpadContext, i32, i32, i32, i32, i32, i32, %struct.BlockDSPContext, %struct.H264ChromaContext, %struct.HpelDSPContext, %struct.IDCTDSPContext, %struct.QpelDSPContext, %struct.VideoDSPContext, %struct.H263DSPContext, ptr, [2 x [2 x ptr]], i32, i32, [2 x [4 x [2 x i32]]], [2 x [2 x i32]], [2 x [2 x [2 x i32]]], [2 x [64 x i16]], i32, i32, i32, i32, i32, [6 x i32], [6 x i32], [3 x ptr], ptr, [64 x i16], [64 x i16], [64 x i16], [64 x i16], i32, i32, %struct.GetBitContext, i32, i32, i32, i32, i32, i32, i32, i32, i32, i32, i32, i32, i32, i32, i32, i64, i64, i16, i16, i16, i16, i32, i32, i32, i32, i32, i32, i32, i32, i32, [3 x i32], i32, i32, i32, i32, i32, i32, %struct.GetBitContext, i32, [2 x [2 x i32]], i32, i32, i32, i32, i32, i32, i32, i32, i32, i32, i32, i32, i32, i32, [2 x i32], i32, i32, ptr, ptr, ptr, ptr, ptr, i32, i32, %struct.ERContext }
%struct.BufferPoolContext = type { ptr, ptr, ptr, ptr, ptr, i32, i32, i32 }
%union.anon = type { [32 x ptr] }
%struct.MPVWorkPicture = type { [3 x ptr], [3 x i64], ptr, ptr, [2 x ptr], ptr, ptr, [2 x ptr], i32 }
%struct.ScratchpadContext = type { ptr, ptr, %union.anon.0, i32 }
%union.anon.0 = type { ptr }
%struct.BlockDSPContext = type { ptr, ptr, [2 x ptr] }
%struct.H264ChromaContext = type { [4 x ptr], [4 x ptr] }
%struct.HpelDSPContext = type { [4 x [4 x ptr]], [4 x [4 x ptr]], [4 x [4 x ptr]], [4 x ptr] }
%struct.IDCTDSPContext = type { ptr, ptr, ptr, ptr, ptr, ptr, [64 x i8], i32, i32 }
%struct.QpelDSPContext = type { [2 x [16 x ptr]], [2 x [16 x ptr]], [2 x [16 x ptr]] }
%struct.VideoDSPContext = type { ptr, ptr }
%struct.H263DSPContext = type { ptr, ptr }
%struct.GetBitContext = type { ptr, ptr, i32, i32, i32 }
%struct.ERContext = type { ptr, ptr, i32, ptr, i32, i32, i32, i64, i64, i32, i32, ptr, ptr, [3 x ptr], ptr, ptr, [2 x [4 x [2 x i32]]], %struct.ERPicture, %struct.ERPicture, %struct.ERPicture, [2 x ptr], [2 x ptr], i16, i16, i32, i32, ptr, ptr }
%struct.ERPicture = type { ptr, ptr, ptr, [2 x ptr], [2 x ptr], ptr, i32 }
%struct.AVCodecContext = type { ptr, i32, i32, ptr, i32, i32, ptr, ptr, ptr, i64, i32, i32, ptr, i32, %struct.AVRational, %struct.AVRational, %struct.AVRational, i32, i32, i32, i32, i32, %struct.AVRational, i32, i32, i32, i32, i32, i32, i32, i32, i32, i32, i32, ptr, ptr, i32, float, float, float, float, float, float, float, float, float, i32, i32, i32, i32, i32, i32, i32, i32, i32, i32, i32, i32, ptr, ptr, ptr, i32, i32, i32, i32, i32, i32, i32, i32, i32, i32, %struct.AVChannelLayout, i32, i32, i32, i32, i32, i32, i32, i32, ptr, i32, i32, i32, float, float, i32, i32, i32, i32, i32, ptr, i64, i64, float, float, i32, i32, ptr, ptr, i32, i32, i32, i32, i32, ptr, ptr, ptr, ptr, i32, i32, [8 x i64], i32, i32, i32, i32, i32, i32, i32, ptr, ptr, i32, i32, i32, i32, i32, i32, i32, i32, i32, i32, ptr, ptr, i32, i32, ptr, ptr, ptr, ptr, i32, i32, i64, i32, i32, i64, ptr, i64, ptr, i32, ptr, i32 }
%struct.AVRational = type { i32, i32 }
%struct.AVChannelLayout = type { i32, i32, %union.anon.1, ptr }
%union.anon.1 = type { i64 }

@.str.1 = private unnamed_addr constant [47 x i8] c"decoding to AV_PIX_FMT_NONE is not supported.\0A\00", align 1
@.str.2 = private unnamed_addr constant [46 x i8] c"too many threads/slices (%d), reducing to %d\0A\00", align 1

; Function Attrs: cold nounwind optsize uwtable
define i32 @ff_mpv_common_init(ptr noundef %0) #0 {
  %2 = alloca i32, align 4
  %3 = alloca ptr, align 8
  %4 = alloca i32, align 4
  %5 = alloca i32, align 4
  %6 = alloca i32, align 4
  %7 = alloca i32, align 4
  store ptr %0, ptr %3, align 8, !tbaa !18
  call void @llvm.lifetime.start.p0(i64 4, ptr %4) #7
  %8 = load ptr, ptr %3, align 8, !tbaa !18
  %9 = getelementptr inbounds nuw %struct.MpegEncContext, ptr %8, i32 0, i32 10
  %10 = load ptr, ptr %9, align 8, !tbaa !48
  %11 = getelementptr inbounds nuw %struct.AVCodecContext, ptr %10, i32 0, i32 118
  %12 = load i32, ptr %11, align 8, !tbaa !121
  %13 = and i32 %12, 2
  %14 = icmp ne i32 %13, 0
  br i1 %14, label %15, label %21

15:                                               ; preds = %1
  %16 = load ptr, ptr %3, align 8, !tbaa !18
  %17 = getelementptr inbounds nuw %struct.MpegEncContext, ptr %16, i32 0, i32 10
  %18 = load ptr, ptr %17, align 8, !tbaa !48
  %19 = getelementptr inbounds nuw %struct.AVCodecContext, ptr %18, i32 0, i32 116
  %20 = load i32, ptr %19, align 8, !tbaa !122
  br label %22

21:                                               ; preds = %1
  br label %22

22:                                               ; preds = %21, %15
  %23 = phi i32 [ %20, %15 ], [ 1, %21 ]
  store i32 %23, ptr %4, align 4, !tbaa !13
  call void @llvm.lifetime.start.p0(i64 4, ptr %5) #7
  %24 = load ptr, ptr %3, align 8, !tbaa !18
  %25 = getelementptr inbounds nuw %struct.MpegEncContext, ptr %24, i32 0, i32 20
  %26 = load i32, ptr %25, align 8, !tbaa !57
  %27 = icmp ne i32 %26, 0
  br i1 %27, label %28, label %41

28:                                               ; preds = %22
  %29 = load ptr, ptr %3, align 8, !tbaa !18
  %30 = getelementptr inbounds nuw %struct.MpegEncContext, ptr %29, i32 0, i32 10
  %31 = load ptr, ptr %30, align 8, !tbaa !48
  %32 = getelementptr inbounds nuw %struct.AVCodecContext, ptr %31, i32 0, i32 68
  %33 = load i32, ptr %32, align 4, !tbaa !123
  %34 = icmp ne i32 %33, 0
  br i1 %34, label %35, label %41

35:                                               ; preds = %28
  %36 = load ptr, ptr %3, align 8, !tbaa !18
  %37 = getelementptr inbounds nuw %struct.MpegEncContext, ptr %36, i32 0, i32 10
  %38 = load ptr, ptr %37, align 8, !tbaa !48
  %39 = getelementptr inbounds nuw %struct.AVCodecContext, ptr %38, i32 0, i32 68
  %40 = load i32, ptr %39, align 4, !tbaa !123
  store i32 %40, ptr %4, align 4, !tbaa !13
  br label %41

41:                                               ; preds = %35, %28, %22
  %42 = load ptr, ptr %3, align 8, !tbaa !18
  %43 = getelementptr inbounds nuw %struct.MpegEncContext, ptr %42, i32 0, i32 10
  %44 = load ptr, ptr %43, align 8, !tbaa !48
  %45 = getelementptr inbounds nuw %struct.AVCodecContext, ptr %44, i32 0, i32 23
  %46 = load i32, ptr %45, align 8, !tbaa !124
  %47 = icmp eq i32 %46, -1
  br i1 %47, label %48, label %52

48:                                               ; preds = %41
  %49 = load ptr, ptr %3, align 8, !tbaa !18
  %50 = getelementptr inbounds nuw %struct.MpegEncContext, ptr %49, i32 0, i32 10
  %51 = load ptr, ptr %50, align 8, !tbaa !48
  call void (ptr, i32, ptr, ...) @av_log(ptr noundef %51, i32 noundef 16, ptr noundef @.str.1)
  store i32 -22, ptr %2, align 4
  store i32 1, ptr %6, align 4
  br label %157

52:                                               ; preds = %41
  %53 = load ptr, ptr %3, align 8, !tbaa !18
  %54 = getelementptr inbounds nuw %struct.MpegEncContext, ptr %53, i32 0, i32 12
  %55 = load i32, ptr %54, align 8, !tbaa !76
  %56 = icmp ne i32 %55, 0
  br i1 %56, label %62, label %57

57:                                               ; preds = %52
  %58 = load ptr, ptr %3, align 8, !tbaa !18
  %59 = getelementptr inbounds nuw %struct.MpegEncContext, ptr %58, i32 0, i32 13
  %60 = load i32, ptr %59, align 4, !tbaa !75
  %61 = icmp ne i32 %60, 0
  br i1 %61, label %62, label %75

62:                                               ; preds = %57, %52
  %63 = load ptr, ptr %3, align 8, !tbaa !18
  %64 = getelementptr inbounds nuw %struct.MpegEncContext, ptr %63, i32 0, i32 12
  %65 = load i32, ptr %64, align 8, !tbaa !76
  %66 = load ptr, ptr %3, align 8, !tbaa !18
  %67 = getelementptr inbounds nuw %struct.MpegEncContext, ptr %66, i32 0, i32 13
  %68 = load i32, ptr %67, align 4, !tbaa !75
  %69 = load ptr, ptr %3, align 8, !tbaa !18
  %70 = getelementptr inbounds nuw %struct.MpegEncContext, ptr %69, i32 0, i32 10
  %71 = load ptr, ptr %70, align 8, !tbaa !48
  %72 = call i32 @av_image_check_size(i32 noundef %65, i32 noundef %68, i32 noundef 0, ptr noundef %71)
  %73 = icmp ne i32 %72, 0
  br i1 %73, label %74, label %75

74:                                               ; preds = %62
  store i32 -22, ptr %2, align 4
  store i32 1, ptr %6, align 4
  br label %157

75:                                               ; preds = %62, %57
  %76 = load ptr, ptr %3, align 8, !tbaa !18
  call void @dsp_init(ptr noundef %76) #8
  %77 = load ptr, ptr %3, align 8, !tbaa !18
  %78 = getelementptr inbounds nuw %struct.MpegEncContext, ptr %77, i32 0, i32 10
  %79 = load ptr, ptr %78, align 8, !tbaa !48
  %80 = getelementptr inbounds nuw %struct.AVCodecContext, ptr %79, i32 0, i32 23
  %81 = load i32, ptr %80, align 8, !tbaa !124
  %82 = load ptr, ptr %3, align 8, !tbaa !18
  %83 = getelementptr inbounds nuw %struct.MpegEncContext, ptr %82, i32 0, i32 148
  %84 = load ptr, ptr %3, align 8, !tbaa !18
  %85 = getelementptr inbounds nuw %struct.MpegEncContext, ptr %84, i32 0, i32 149
  %86 = call i32 @av_pix_fmt_get_chroma_sub_sample(i32 noundef %81, ptr noundef %83, ptr noundef %85)
  store i32 %86, ptr %5, align 4, !tbaa !13
  %87 = load i32, ptr %5, align 4, !tbaa !13
  %88 = icmp ne i32 %87, 0
  br i1 %88, label %89, label %91

89:                                               ; preds = %75
  %90 = load i32, ptr %5, align 4, !tbaa !13
  store i32 %90, ptr %2, align 4
  store i32 1, ptr %6, align 4
  br label %157

91:                                               ; preds = %75
  %92 = load ptr, ptr %3, align 8, !tbaa !18
  %93 = call i32 @ff_mpv_init_context_frame(ptr noundef %92) #8
  store i32 %93, ptr %5, align 4, !tbaa !13
  %94 = icmp ne i32 %93, 0
  br i1 %94, label %95, label %96

95:                                               ; preds = %91
  br label %154

96:                                               ; preds = %91
  %97 = load i32, ptr %4, align 4, !tbaa !13
  %98 = icmp sgt i32 %97, 32
  br i1 %98, label %110, label %99

99:                                               ; preds = %96
  %100 = load i32, ptr %4, align 4, !tbaa !13
  %101 = load ptr, ptr %3, align 8, !tbaa !18
  %102 = getelementptr inbounds nuw %struct.MpegEncContext, ptr %101, i32 0, i32 26
  %103 = load i32, ptr %102, align 8, !tbaa !53
  %104 = icmp sgt i32 %100, %103
  br i1 %104, label %105, label %135

105:                                              ; preds = %99
  %106 = load ptr, ptr %3, align 8, !tbaa !18
  %107 = getelementptr inbounds nuw %struct.MpegEncContext, ptr %106, i32 0, i32 26
  %108 = load i32, ptr %107, align 8, !tbaa !53
  %109 = icmp ne i32 %108, 0
  br i1 %109, label %110, label %135

110:                                              ; preds = %105, %96
  call void @llvm.lifetime.start.p0(i64 4, ptr %7) #7
  %111 = load ptr, ptr %3, align 8, !tbaa !18
  %112 = getelementptr inbounds nuw %struct.MpegEncContext, ptr %111, i32 0, i32 26
  %113 = load i32, ptr %112, align 8, !tbaa !53
  %114 = icmp ne i32 %113, 0
  br i1 %114, label %115, label %127

115:                                              ; preds = %110
  %116 = load ptr, ptr %3, align 8, !tbaa !18
  %117 = getelementptr inbounds nuw %struct.MpegEncContext, ptr %116, i32 0, i32 26
  %118 = load i32, ptr %117, align 8, !tbaa !53
  %119 = icmp sgt i32 32, %118
  br i1 %119, label %120, label %124

120:                                              ; preds = %115
  %121 = load ptr, ptr %3, align 8, !tbaa !18
  %122 = getelementptr inbounds nuw %struct.MpegEncContext, ptr %121, i32 0, i32 26
  %123 = load i32, ptr %122, align 8, !tbaa !53
  br label %125

124:                                              ; preds = %115
  br label %125

125:                                              ; preds = %124, %120
  %126 = phi i32 [ %123, %120 ], [ 32, %124 ]
  store i32 %126, ptr %7, align 4, !tbaa !13
  br label %128

127:                                              ; preds = %110
  store i32 32, ptr %7, align 4, !tbaa !13
  br label %128

128:                                              ; preds = %127, %125
  %129 = load ptr, ptr %3, align 8, !tbaa !18
  %130 = getelementptr inbounds nuw %struct.MpegEncContext, ptr %129, i32 0, i32 10
  %131 = load ptr, ptr %130, align 8, !tbaa !48
  %132 = load i32, ptr %4, align 4, !tbaa !13
  %133 = load i32, ptr %7, align 4, !tbaa !13
  call void (ptr, i32, ptr, ...) @av_log(ptr noundef %131, i32 noundef 24, ptr noundef @.str.2, i32 noundef %132, i32 noundef %133)
  %134 = load i32, ptr %7, align 4, !tbaa !13
  store i32 %134, ptr %4, align 4, !tbaa !13
  call void @llvm.lifetime.end.p0(i64 4, ptr %7) #7
  br label %135

135:                                              ; preds = %128, %105, %99
  %136 = load ptr, ptr %3, align 8, !tbaa !18
  %137 = getelementptr inbounds nuw %struct.MpegEncContext, ptr %136, i32 0, i32 23
  store i32 1, ptr %137, align 4, !tbaa !125
  %138 = load ptr, ptr %3, align 8, !tbaa !18
  %139 = getelementptr inbounds nuw %struct.MpegEncContext, ptr %138, i32 0, i32 38
  %140 = getelementptr inbounds [32 x ptr], ptr %139, i64 0, i64 0
  call void @llvm.memset.p0.i64(ptr align 8 %140, i8 0, i64 256, i1 false)
  %141 = load ptr, ptr %3, align 8, !tbaa !18
  %142 = load ptr, ptr %3, align 8, !tbaa !18
  %143 = getelementptr inbounds nuw %struct.MpegEncContext, ptr %142, i32 0, i32 38
  %144 = getelementptr inbounds [32 x ptr], ptr %143, i64 0, i64 0
  store ptr %141, ptr %144, align 8, !tbaa !15
  %145 = load i32, ptr %4, align 4, !tbaa !13
  %146 = load ptr, ptr %3, align 8, !tbaa !18
  %147 = getelementptr inbounds nuw %struct.MpegEncContext, ptr %146, i32 0, i32 39
  store i32 %145, ptr %147, align 8, !tbaa !50
  %148 = load ptr, ptr %3, align 8, !tbaa !18
  %149 = call i32 @ff_mpv_init_duplicate_contexts(ptr noundef %148) #8
  store i32 %149, ptr %5, align 4, !tbaa !13
  %150 = load i32, ptr %5, align 4, !tbaa !13
  %151 = icmp slt i32 %150, 0
  br i1 %151, label %152, label %153

152:                                              ; preds = %135
  br label %154

153:                                              ; preds = %135
  store i32 0, ptr %2, align 4
  store i32 1, ptr %6, align 4
  br label %157

154:                                              ; preds = %152, %95
  %155 = load ptr, ptr %3, align 8, !tbaa !18
  call void @ff_mpv_common_end(ptr noundef %155)
  %156 = load i32, ptr %5, align 4, !tbaa !13
  store i32 %156, ptr %2, align 4
  store i32 1, ptr %6, align 4
  br label %157

157:                                              ; preds = %154, %153, %89, %74, %48
  call void @llvm.lifetime.end.p0(i64 4, ptr %5) #7
  call void @llvm.lifetime.end.p0(i64 4, ptr %4) #7
  %158 = load i32, ptr %2, align 4
  ret i32 %158
}