; Function Attrs: cold nounwind optsize uwtable
define i32 @ff_mpv_common_init(ptr noundef %0) local_unnamed_addr #2 {
  %2 = getelementptr inbounds nuw i8, ptr %0, i64 472
  %3 = load ptr, ptr %2, align 8, !tbaa !42
  %4 = getelementptr inbounds nuw i8, ptr %3, i64 664
  %5 = load i32, ptr %4, align 8, !tbaa !114
  %6 = and i32 %5, 2
  %.not = icmp eq i32 %6, 0
  br i1 %.not, label %10, label %7

7:                                                ; preds = %1
  %8 = getelementptr inbounds nuw i8, ptr %3, i64 656
  %9 = load i32, ptr %8, align 8, !tbaa !115
  br label %10

10:                                               ; preds = %1, %7
  %11 = phi i32 [ %9, %7 ], [ 1, %1 ]
  %12 = getelementptr inbounds nuw i8, ptr %0, i64 520
  %13 = load i32, ptr %12, align 8, !tbaa !50
  %.not49 = icmp eq i32 %13, 0
  br i1 %.not49, label %17, label %14

14:                                               ; preds = %10
  %15 = getelementptr inbounds nuw i8, ptr %3, i64 340
  %16 = load i32, ptr %15, align 4, !tbaa !116
  %.not50 = icmp eq i32 %16, 0
  %spec.select = select i1 %.not50, i32 %11, i32 %16
  br label %17

17:                                               ; preds = %14, %10
  %.041 = phi i32 [ %11, %10 ], [ %spec.select, %14 ]
  %18 = getelementptr inbounds nuw i8, ptr %3, i64 136
  %19 = load i32, ptr %18, align 8, !tbaa !117
  %20 = icmp eq i32 %19, -1
  br i1 %20, label %21, label %22

21:                                               ; preds = %17
  tail call void (ptr, i32, ptr, ...) @av_log(ptr noundef nonnull %3, i32 noundef 16, ptr noundef nonnull @.str.1) #12
  br label %50

22:                                               ; preds = %17
  %23 = getelementptr inbounds nuw i8, ptr %0, i64 488
  %24 = load i32, ptr %23, align 8, !tbaa !69
  %.not51 = icmp eq i32 %24, 0
  %25 = getelementptr inbounds nuw i8, ptr %0, i64 492
  %26 = load i32, ptr %25, align 4, !tbaa !68
  %.not52 = icmp eq i32 %26, 0
  %or.cond62 = select i1 %.not51, i1 %.not52, i1 false
  br i1 %or.cond62, label %28, label %._crit_edge

._crit_edge:                                      ; preds = %22
  %27 = tail call i32 @av_image_check_size(i32 noundef %24, i32 noundef %26, i32 noundef 0, ptr noundef nonnull %3) #12
  %.not53 = icmp eq i32 %27, 0
  br i1 %.not53, label %28, label %50

28:                                               ; preds = %22, %._crit_edge
  tail call fastcc void @dsp_init(ptr noundef nonnull %0) #13
  %29 = load ptr, ptr %2, align 8, !tbaa !42
  %30 = getelementptr inbounds nuw i8, ptr %29, i64 136
  %31 = load i32, ptr %30, align 8, !tbaa !117
  %32 = getelementptr inbounds nuw i8, ptr %0, i64 4256
  %33 = getelementptr inbounds nuw i8, ptr %0, i64 4260
  %34 = tail call i32 @av_pix_fmt_get_chroma_sub_sample(i32 noundef %31, ptr noundef nonnull %32, ptr noundef nonnull %33) #12
  %.not54 = icmp eq i32 %34, 0
  br i1 %.not54, label %35, label %50

35:                                               ; preds = %28
  %36 = tail call i32 @ff_mpv_init_context_frame(ptr noundef nonnull %0) #13
  %.not55 = icmp eq i32 %36, 0
  br i1 %.not55, label %37, label %49

37:                                               ; preds = %35
  %38 = icmp sgt i32 %.041, 32
  %.phi.trans.insert60 = getelementptr inbounds nuw i8, ptr %0, i64 544
  %.pre61 = load i32, ptr %.phi.trans.insert60, align 8, !tbaa !47
  br i1 %38, label %._crit_edge59, label %39

39:                                               ; preds = %37
  %40 = icmp sle i32 %.041, %.pre61
  %.not56 = icmp eq i32 %.pre61, 0
  %or.cond = or i1 %40, %.not56
  br i1 %or.cond, label %42, label %._crit_edge59

._crit_edge59:                                    ; preds = %37, %39
  %.not57 = icmp eq i32 %.pre61, 0
  %spec.select58 = tail call i32 @llvm.smin.i32(i32 %.pre61, i32 32)
  %.0 = select i1 %.not57, i32 32, i32 %spec.select58
  %41 = load ptr, ptr %2, align 8, !tbaa !42
  tail call void (ptr, i32, ptr, ...) @av_log(ptr noundef %41, i32 noundef 24, ptr noundef nonnull @.str.2, i32 noundef %.041, i32 noundef %.0) #12
  br label %42

42:                                               ; preds = %._crit_edge59, %39
  %.1 = phi i32 [ %.0, %._crit_edge59 ], [ %.041, %39 ]
  %43 = getelementptr inbounds nuw i8, ptr %0, i64 532
  store i32 1, ptr %43, align 4, !tbaa !118
  %44 = getelementptr inbounds nuw i8, ptr %0, i64 656
  %45 = getelementptr inbounds nuw i8, ptr %0, i64 664
  tail call void @llvm.memset.p0.i64(ptr noundef nonnull align 8 dereferenceable(248) %45, i8 0, i64 248, i1 false)
  store ptr %0, ptr %44, align 8, !tbaa !10
  %46 = getelementptr inbounds nuw i8, ptr %0, i64 912
  store i32 %.1, ptr %46, align 8, !tbaa !44
  %47 = tail call i32 @ff_mpv_init_duplicate_contexts(ptr noundef nonnull %0) #13
  %48 = icmp slt i32 %47, 0
  br i1 %48, label %49, label %50

49:                                               ; preds = %42, %35
  %.040 = phi i32 [ %36, %35 ], [ %47, %42 ]
  tail call void @ff_mpv_common_end(ptr noundef nonnull %0)
  br label %50

50:                                               ; preds = %42, %28, %._crit_edge, %49, %21
  %.042 = phi i32 [ -22, %21 ], [ %.040, %49 ], [ -22, %._crit_edge ], [ %34, %28 ], [ 0, %42 ]
  ret i32 %.042
}